target datalayout = "e-m:e-p270:32:32-p271:32:32-p272:64:64-i64:64-i128:128-f80:128-n8:16:32:64-S128"
target triple = "x86_64-pc-linux-gnu"

%"class.net::TcpCubicSenderBase" = type <{ %"class.net::SendAlgorithmInterface", %"class.net::HybridSlowStart", %"class.net::PrrSender", ptr, ptr, i8, [3 x i8], i32, i64, i64, i64, i8, i8, i8, i8, i8, [3 x i8] }>
%"class.net::SendAlgorithmInterface" = type { ptr }
%"class.net::HybridSlowStart" = type { i8, i32, i64, i64, i32, %"class.net::QuicTime::Delta" }
%"class.net::QuicTime::Delta" = type { %"class.base::TimeDelta", i64 }
%"class.base::TimeDelta" = type { i64 }
%"class.net::PrrSender" = type { i64, i64, i64, i64 }

; Function Attrs: inlinehint mustprogress nounwind uwtable
define linkonce_odr noundef nonnull align 8 dereferenceable(8) ptr @_ZSt3maxImERKT_S2_S2_(ptr noundef nonnull align 8 dereferenceable(8) %0, ptr noundef nonnull align 8 dereferenceable(8) %1) #1 comdat {
  %3 = alloca ptr, align 8
  %4 = alloca ptr, align 8
  %5 = alloca ptr, align 8
  store ptr %0, ptr %4, align 8, !tbaa !83
  store ptr %1, ptr %5, align 8, !tbaa !83
  %6 = load ptr, ptr %4, align 8, !tbaa !83
  %7 = load i64, ptr %6, align 8, !tbaa !56
  %8 = load ptr, ptr %5, align 8, !tbaa !83
  %9 = load i64, ptr %8, align 8, !tbaa !56
  %10 = icmp ult i64 %7, %9
  br i1 %10, label %11, label %13

11:                                               ; preds = %2
  %12 = load ptr, ptr %5, align 8, !tbaa !83
  store ptr %12, ptr %3, align 8
  br label %15

13:                                               ; preds = %2
  %14 = load ptr, ptr %4, align 8, !tbaa !83
  store ptr %14, ptr %3, align 8
  br label %15

15:                                               ; preds = %13, %11
  %16 = load ptr, ptr %3, align 8
  ret ptr %16
}

; Function Attrs: mustprogress uwtable
define void @_ZN3net18TcpCubicSenderBase13OnPacketAckedEmmm(ptr noundef nonnull align 8 dereferenceable(141) %0, i64 noundef %1, i64 noundef %2, i64 noundef %3) #0 align 2 {
  %5 = alloca ptr, align 8
  %6 = alloca i64, align 8
  %7 = alloca i64, align 8
  %8 = alloca i64, align 8
  store ptr %0, ptr %5, align 8, !tbaa !3
  store i64 %1, ptr %6, align 8, !tbaa !56
  store i64 %2, ptr %7, align 8, !tbaa !56
  store i64 %3, ptr %8, align 8, !tbaa !56
  %9 = load ptr, ptr %5, align 8
  %10 = getelementptr inbounds nuw %"class.net::TcpCubicSenderBase", ptr %9, i32 0, i32 9
  %11 = call noundef nonnull align 8 dereferenceable(8) ptr @_ZSt3maxImERKT_S2_S2_(ptr noundef nonnull align 8 dereferenceable(8) %6, ptr noundef nonnull align 8 dereferenceable(8) %10)
  %12 = load i64, ptr %11, align 8, !tbaa !56
  %13 = getelementptr inbounds nuw %"class.net::TcpCubicSenderBase", ptr %9, i32 0, i32 9
  store i64 %12, ptr %13, align 8, !tbaa !34
  %14 = load ptr, ptr %9, align 8, !tbaa !16
  %15 = getelementptr inbounds ptr, ptr %14, i64 14
  %16 = load ptr, ptr %15, align 8
  %17 = call noundef zeroext i1 %16(ptr noundef nonnull align 8 dereferenceable(141) %9)
  br i1 %17, label %18, label %26

18:                                               ; preds = %4
  %19 = getelementptr inbounds nuw %"class.net::TcpCubicSenderBase", ptr %9, i32 0, i32 15
  %20 = load i8, ptr %19, align 4, !tbaa !40, !range !29, !noundef !30
  %21 = trunc i8 %20 to i1
  br i1 %21, label %25, label %22

22:                                               ; preds = %18
  %23 = getelementptr inbounds nuw %"class.net::TcpCubicSenderBase", ptr %9, i32 0, i32 2
  %24 = load i64, ptr %7, align 8, !tbaa !56
  call void @_ZN3net9PrrSender13OnPacketAckedEm(ptr noundef nonnull align 8 dereferenceable(32) %23, i64 noundef %24)
  br label %25

25:                                               ; preds = %22, %18
  br label %40

26:                                               ; preds = %4
  %27 = load i64, ptr %6, align 8, !tbaa !56
  %28 = load i64, ptr %7, align 8, !tbaa !56
  %29 = load i64, ptr %8, align 8, !tbaa !56
  %30 = load ptr, ptr %9, align 8, !tbaa !16
  %31 = getelementptr inbounds ptr, ptr %30, i64 25
  %32 = load ptr, ptr %31, align 8
  call void %32(ptr noundef nonnull align 8 dereferenceable(141) %9, i64 noundef %27, i64 noundef %28, i64 noundef %29)
  %33 = load ptr, ptr %9, align 8, !tbaa !16
  %34 = getelementptr inbounds ptr, ptr %33, i64 13
  %35 = load ptr, ptr %34, align 8
  %36 = call noundef zeroext i1 %35(ptr noundef nonnull align 8 dereferenceable(141) %9)
  br i1 %36, label %37, label %40

37:                                               ; preds = %26
  %38 = getelementptr inbounds nuw %"class.net::TcpCubicSenderBase", ptr %9, i32 0, i32 1
  %39 = load i64, ptr %6, align 8, !tbaa !56
  call void @_ZN3net15HybridSlowStart13OnPacketAckedEm(ptr noundef nonnull align 8 dereferenceable(48) %38, i64 noundef %39)
  br label %40

40:                                               ; preds = %25, %37, %26
  ret void
}