; Function Attrs: mustprogress uwtable
define void @_ZN3net18TcpCubicSenderBase13OnPacketAckedEmmm(ptr noundef nonnull align 8 dereferenceable(141) %0, i64 noundef %1, i64 noundef %2, i64 noundef %3) local_unnamed_addr #0 align 2 {
  %5 = getelementptr inbounds nuw i8, ptr %0, i64 120
  %6 = load i64, ptr %5, align 8, !tbaa !37
  %.sroa.speculated = tail call i64 @llvm.umax.i64(i64 %1, i64 %6)
  store i64 %.sroa.speculated, ptr %5, align 8, !tbaa !46
  %7 = load ptr, ptr %0, align 8, !tbaa !3
  %8 = getelementptr inbounds nuw i8, ptr %7, i64 112
  %9 = load ptr, ptr %8, align 8
  %10 = tail call noundef zeroext i1 %9(ptr noundef nonnull align 8 dereferenceable(141) %0)
  br i1 %10, label %11, label %17

11:                                               ; preds = %4
  %12 = getelementptr inbounds nuw i8, ptr %0, i64 140
  %13 = load i8, ptr %12, align 4, !tbaa !29, !range !47, !noundef !48
  %14 = trunc nuw i8 %13 to i1
  br i1 %14, label %27, label %15

15:                                               ; preds = %11
  %16 = getelementptr inbounds nuw i8, ptr %0, i64 56
  tail call void @_ZN3net9PrrSender13OnPacketAckedEm(ptr noundef nonnull align 8 dereferenceable(32) %16, i64 noundef %2)
  br label %27

17:                                               ; preds = %4
  %18 = load ptr, ptr %0, align 8, !tbaa !3
  %19 = getelementptr inbounds nuw i8, ptr %18, i64 200
  %20 = load ptr, ptr %19, align 8
  tail call void %20(ptr noundef nonnull align 8 dereferenceable(141) %0, i64 noundef %1, i64 noundef %2, i64 noundef %3)
  %21 = load ptr, ptr %0, align 8, !tbaa !3
  %22 = getelementptr inbounds nuw i8, ptr %21, i64 104
  %23 = load ptr, ptr %22, align 8
  %24 = tail call noundef zeroext i1 %23(ptr noundef nonnull align 8 dereferenceable(141) %0)
  br i1 %24, label %25, label %27

25:                                               ; preds = %17
  %26 = getelementptr inbounds nuw i8, ptr %0, i64 8
  tail call void @_ZN3net15HybridSlowStart13OnPacketAckedEm(ptr noundef nonnull align 8 dereferenceable(48) %26, i64 noundef %1)
  br label %27

27:                                               ; preds = %11, %15, %25, %17
  ret void
}